target datalayout = "e-m:e-p270:32:32-p271:32:32-p272:64:64-i64:64-i128:128-f80:128-n8:16:32:64-S128"
target triple = "x86_64-pc-linux-gnu"

%struct.strbuf = type { i64, i64, ptr }

@__const.unable_to_lock_die.buf = private unnamed_addr constant %struct.strbuf { i64 0, i64 0, ptr @strbuf_slopbuf }, align 8
@.str.2 = private unnamed_addr constant [3 x i8] c"%s\00", align 1

; Function Attrs: noreturn nounwind uwtable
define dso_local void @unable_to_lock_die(ptr noundef %0, i32 noundef %1) #4 {
  %3 = alloca ptr, align 8
  %4 = alloca i32, align 4
  %5 = alloca %struct.strbuf, align 8
  store ptr %0, ptr %3, align 8, !tbaa !4
  store i32 %1, ptr %4, align 4, !tbaa !9
  call void @llvm.lifetime.start.p0(i64 24, ptr %5) #10
  call void @llvm.memcpy.p0.p0.i64(ptr align 8 %5, ptr align 8 @__const.unable_to_lock_die.buf, i64 24, i1 false)
  %6 = load ptr, ptr %3, align 8, !tbaa !4
  %7 = load i32, ptr %4, align 4, !tbaa !9
  call void @unable_to_lock_message(ptr noundef %6, i32 noundef %7, ptr noundef %5)
  %8 = getelementptr inbounds nuw %struct.strbuf, ptr %5, i32 0, i32 2
  %9 = load ptr, ptr %8, align 8, !tbaa !14
  call void (ptr, ...) @die(ptr noundef @.str.2, ptr noundef %9) #11
  unreachable
}