; Function Attrs: noreturn nounwind uwtable
define dso_local void @unable_to_lock_die(ptr noundef %0, i32 noundef %1) local_unnamed_addr #3 {
  %3 = alloca %struct.strbuf, align 8
  call void @llvm.lifetime.start.p0(i64 24, ptr nonnull %3) #11
  call void @llvm.memcpy.p0.p0.i64(ptr noundef nonnull align 8 dereferenceable(24) %3, ptr noundef nonnull align 8 dereferenceable(24) @__const.lock_file.filename, i64 24, i1 false)
  call void @unable_to_lock_message(ptr noundef %0, i32 noundef %1, ptr noundef nonnull %3)
  %4 = getelementptr inbounds nuw i8, ptr %3, i64 16
  %5 = load ptr, ptr %4, align 8, !tbaa !8
  call void (ptr, ...) @die(ptr noundef nonnull @.str.2, ptr noundef %5) #12
  unreachable
}